; Function Attrs: null_pointer_is_valid sspstrong uwtable
define internal void @actrace_calls_draw(ptr noundef %0) #0 {
  %2 = getelementptr inbounds nuw i8, ptr %0, i64 16
  %3 = load ptr, ptr %2, align 8
  %.not = icmp eq ptr %3, null
  br i1 %.not, label %11, label %4

4:                                                ; preds = %1
  %5 = getelementptr inbounds nuw i8, ptr %0, i64 232
  %6 = load i32, ptr %5, align 8
  %7 = and i32 %6, 1
  %.not6 = icmp eq i32 %7, 0
  br i1 %.not6, label %11, label %8

8:                                                ; preds = %4
  tail call void %3(ptr noundef %0)
  %9 = load i32, ptr %5, align 8
  %10 = and i32 %9, -2
  store i32 %10, ptr %5, align 8
  br label %11

11:                                               ; preds = %8, %4, %1
  ret void
}